target datalayout = "e-m:e-p270:32:32-p271:32:32-p272:64:64-i64:64-i128:128-f80:128-n8:16:32:64-S128"
target triple = "x86_64-pc-linux-gnu"

%class.AddressEditorFrame = type { %class.AccordionFrame, ptr, ptr }
%class.AccordionFrame = type { %class.QFrame, i32, ptr }
%class.QFrame = type { %class.QWidget }
%class.QWidget = type { %class.QObject, %class.QPaintDevice.base, ptr }
%class.QObject = type { ptr, %class.QScopedPointer }
%class.QScopedPointer = type { ptr }
%class.QPaintDevice.base = type <{ ptr, i16 }>
%class.Ui_AddressEditorFrame = type { ptr, ptr, ptr, ptr, ptr, ptr, ptr, ptr, ptr, ptr }
%class.QString = type { %struct.QArrayDataPointer }
%struct.QArrayDataPointer = type { ptr, ptr, i64 }
%class.QFlags.17 = type { i32 }
%class.QFlags.9 = type { i32 }
%class.QKeyEvent = type <{ %class.QInputEvent, %class.QString, i32, i32, i32, i32, i16, [6 x i8] }>
%class.QInputEvent = type { %class.QEvent, ptr, i64, %class.QFlags.9, i32 }
%class.QEvent = type { ptr, i16, i8, i8, i8, i8, i16 }
%class.QRect = type { i32, i32, i32, i32 }
%class.QWidgetData = type { i64, i32, %class.QFlags.17, i32, %class.QRect, [4 x i8], %class.QPalette, %class.QFont, %class.QRect }
%class.QPalette = type <{ ptr, i32, [4 x i8] }>
%class.QFont = type <{ %class.QExplicitlySharedDataPointer, i32, [4 x i8] }>
%class.QExplicitlySharedDataPointer = type { ptr }

; Function Attrs: inlinehint mustprogress null_pointer_is_valid sspstrong uwtable
define linkonce_odr noundef zeroext i1 @_ZNK7QWidget13testAttributeEN2Qt15WidgetAttributeE(ptr noundef align 8 dereferenceable_or_null(40) %0, i32 noundef %1) #9 comdat align 2 {
  %3 = alloca i1, align 1
  %4 = alloca ptr, align 8
  %5 = alloca i32, align 4
  store ptr %0, ptr %4, align 8
  store i32 %1, ptr %5, align 4
  %6 = load ptr, ptr %4, align 8
  %7 = load i32, ptr %5, align 4
  %8 = icmp slt i32 %7, 32
  br i1 %8, label %9, label %18

9:                                                ; preds = %2
  %10 = getelementptr inbounds nuw %class.QWidget, ptr %6, i32 0, i32 2
  %11 = load ptr, ptr %10, align 8
  %12 = getelementptr inbounds nuw %class.QWidgetData, ptr %11, i32 0, i32 1
  %13 = load i32, ptr %12, align 8
  %14 = load i32, ptr %5, align 4
  %15 = shl i32 1, %14
  %16 = and i32 %13, %15
  %17 = icmp ne i32 %16, 0
  store i1 %17, ptr %3, align 1
  br label %21

18:                                               ; preds = %2
  %19 = load i32, ptr %5, align 4
  %20 = call noundef zeroext i1 @_ZNK7QWidget20testAttribute_helperEN2Qt15WidgetAttributeE(ptr noundef align 8 dereferenceable_or_null(40) %6, i32 noundef %19)
  store i1 %20, ptr %3, align 1
  br label %21

21:                                               ; preds = %18, %9
  %22 = load i1, ptr %3, align 1
  ret i1 %22
}

; Function Attrs: inlinehint mustprogress nounwind null_pointer_is_valid sspstrong uwtable
define linkonce_odr noundef zeroext i1 @_Zeq6QFlagsIN2Qt16KeyboardModifierEES2_(i32 %0, i32 %1) #8 comdat {
  %3 = alloca %class.QFlags.9, align 4
  %4 = alloca %class.QFlags.9, align 4
  %5 = getelementptr inbounds nuw %class.QFlags.9, ptr %3, i32 0, i32 0
  store i32 %0, ptr %5, align 4
  %6 = getelementptr inbounds nuw %class.QFlags.9, ptr %4, i32 0, i32 0
  store i32 %1, ptr %6, align 4
  %7 = getelementptr inbounds nuw %class.QFlags.9, ptr %3, i32 0, i32 0
  %8 = load i32, ptr %7, align 4
  %9 = getelementptr inbounds nuw %class.QFlags.9, ptr %4, i32 0, i32 0
  %10 = load i32, ptr %9, align 4
  %11 = icmp eq i32 %8, %10
  ret i1 %11
}

; Function Attrs: inlinehint mustprogress nounwind null_pointer_is_valid sspstrong uwtable
define linkonce_odr void @_ZN6QFlagsIN2Qt16KeyboardModifierEEC2ES1_(ptr noundef align 4 dereferenceable_or_null(4) %0, i32 noundef %1) unnamed_addr #8 comdat align 2 {
  %3 = alloca ptr, align 8
  %4 = alloca i32, align 4
  store ptr %0, ptr %3, align 8
  store i32 %1, ptr %4, align 4
  %5 = load ptr, ptr %3, align 8
  %6 = getelementptr inbounds nuw %class.QFlags.9, ptr %5, i32 0, i32 0
  %7 = load i32, ptr %4, align 4
  store i32 %7, ptr %6, align 4
  ret void
}

; Function Attrs: inlinehint mustprogress null_pointer_is_valid sspstrong uwtable
define linkonce_odr noundef zeroext i1 @_ZNK7QWidget9isEnabledEv(ptr noundef align 8 dereferenceable_or_null(40) %0) #9 comdat align 2 {
  %2 = alloca ptr, align 8
  store ptr %0, ptr %2, align 8
  %3 = load ptr, ptr %2, align 8
  %4 = call noundef zeroext i1 @_ZNK7QWidget13testAttributeEN2Qt15WidgetAttributeE(ptr noundef align 8 dereferenceable_or_null(40) %3, i32 noundef 0)
  %5 = xor i1 %4, true
  ret i1 %5
}

; Function Attrs: mustprogress null_pointer_is_valid sspstrong uwtable
define void @_ZN18AddressEditorFrame21on_buttonBox_rejectedEv(ptr noundef align 8 dereferenceable_or_null(72) %0) #0 align 2 {
  %2 = alloca ptr, align 8
  store ptr %0, ptr %2, align 8
  %3 = load ptr, ptr %2, align 8
  %4 = getelementptr inbounds nuw %class.AddressEditorFrame, ptr %3, i32 0, i32 1
  %5 = load ptr, ptr %4, align 8
  %6 = getelementptr inbounds nuw %class.Ui_AddressEditorFrame, ptr %5, i32 0, i32 4
  %7 = load ptr, ptr %6, align 8
  call void @_ZN9QComboBox5clearEv(ptr noundef align 8 dereferenceable_or_null(40) %7)
  %8 = getelementptr inbounds nuw %class.AddressEditorFrame, ptr %3, i32 0, i32 1
  %9 = load ptr, ptr %8, align 8
  %10 = getelementptr inbounds nuw %class.Ui_AddressEditorFrame, ptr %9, i32 0, i32 7
  %11 = load ptr, ptr %10, align 8
  call void @_ZN9QLineEdit5clearEv(ptr noundef align 8 dereferenceable_or_null(40) %11)
  call void @_ZN14AccordionFrame12animatedHideEv(ptr noundef align 8 dereferenceable_or_null(56) %3)
  ret void
}

; Function Attrs: mustprogress nounwind null_pointer_is_valid sspstrong uwtable
define linkonce_odr noundef i32 @_ZNK9QKeyEvent3keyEv(ptr noundef align 8 dereferenceable_or_null(82) %0) #4 comdat align 2 {
  %2 = alloca ptr, align 8
  store ptr %0, ptr %2, align 8
  %3 = load ptr, ptr %2, align 8
  %4 = getelementptr inbounds nuw %class.QKeyEvent, ptr %3, i32 0, i32 2
  %5 = load i32, ptr %4, align 8
  ret i32 %5
}

; Function Attrs: inlinehint mustprogress nounwind null_pointer_is_valid sspstrong uwtable
define linkonce_odr noundef zeroext i1 @_Zeq6QFlagsIN2Qt16KeyboardModifierEES1_(i32 %0, i32 noundef %1) #8 comdat {
  %3 = alloca %class.QFlags.9, align 4
  %4 = alloca i32, align 4
  %5 = alloca %class.QFlags.9, align 4
  %6 = alloca %class.QFlags.9, align 4
  %7 = getelementptr inbounds nuw %class.QFlags.9, ptr %3, i32 0, i32 0
  store i32 %0, ptr %7, align 4
  store i32 %1, ptr %4, align 4
  call void @llvm.memcpy.p0.p0.i64(ptr align 4 %5, ptr align 4 %3, i64 4, i1 false)
  %8 = load i32, ptr %4, align 4
  call void @_ZN6QFlagsIN2Qt16KeyboardModifierEEC2ES1_(ptr noundef align 4 dereferenceable_or_null(4) %6, i32 noundef %8) #24
  %9 = getelementptr inbounds nuw %class.QFlags.9, ptr %5, i32 0, i32 0
  %10 = load i32, ptr %9, align 4
  %11 = getelementptr inbounds nuw %class.QFlags.9, ptr %6, i32 0, i32 0
  %12 = load i32, ptr %11, align 4
  %13 = call noundef zeroext i1 @_Zeq6QFlagsIN2Qt16KeyboardModifierEES2_(i32 %10, i32 %12) #24
  ret i1 %13
}

; Function Attrs: mustprogress null_pointer_is_valid sspstrong uwtable
define void @_ZN18AddressEditorFrame13keyPressEventEP9QKeyEvent(ptr noundef align 8 dereferenceable_or_null(72) %0, ptr noundef %1) unnamed_addr #0 align 2 {
  %3 = alloca ptr, align 8
  %4 = alloca ptr, align 8
  %5 = alloca %class.QFlags.9, align 4
  store ptr %0, ptr %3, align 8
  store ptr %1, ptr %4, align 8
  %6 = load ptr, ptr %3, align 8
  %7 = load ptr, ptr %4, align 8
  %8 = call i32 @_ZNK9QKeyEvent9modifiersEv(ptr noundef align 8 dereferenceable_or_null(82) %7)
  %9 = getelementptr inbounds nuw %class.QFlags.9, ptr %5, i32 0, i32 0
  store i32 %8, ptr %9, align 4
  %10 = getelementptr inbounds nuw %class.QFlags.9, ptr %5, i32 0, i32 0
  %11 = load i32, ptr %10, align 4
  %12 = call noundef zeroext i1 @_Zeq6QFlagsIN2Qt16KeyboardModifierEES1_(i32 %11, i32 noundef 0) #24
  br i1 %12, label %13, label %37

13:                                               ; preds = %2
  %14 = load ptr, ptr %4, align 8
  %15 = call noundef i32 @_ZNK9QKeyEvent3keyEv(ptr noundef align 8 dereferenceable_or_null(82) %14)
  %16 = icmp eq i32 %15, 16777216
  br i1 %16, label %17, label %18

17:                                               ; preds = %13
  call void @_ZN18AddressEditorFrame21on_buttonBox_rejectedEv(ptr noundef align 8 dereferenceable_or_null(72) %6)
  br label %36

18:                                               ; preds = %13
  %19 = load ptr, ptr %4, align 8
  %20 = call noundef i32 @_ZNK9QKeyEvent3keyEv(ptr noundef align 8 dereferenceable_or_null(82) %19)
  %21 = icmp eq i32 %20, 16777221
  br i1 %21, label %26, label %22

22:                                               ; preds = %18
  %23 = load ptr, ptr %4, align 8
  %24 = call noundef i32 @_ZNK9QKeyEvent3keyEv(ptr noundef align 8 dereferenceable_or_null(82) %23)
  %25 = icmp eq i32 %24, 16777220
  br i1 %25, label %26, label %35

26:                                               ; preds = %22, %18
  %27 = getelementptr inbounds nuw %class.AddressEditorFrame, ptr %6, i32 0, i32 1
  %28 = load ptr, ptr %27, align 8
  %29 = getelementptr inbounds nuw %class.Ui_AddressEditorFrame, ptr %28, i32 0, i32 9
  %30 = load ptr, ptr %29, align 8
  %31 = call noundef ptr @_ZNK16QDialogButtonBox6buttonENS_14StandardButtonE(ptr noundef align 8 dereferenceable_or_null(40) %30, i32 noundef 1024)
  %32 = call noundef zeroext i1 @_ZNK7QWidget9isEnabledEv(ptr noundef align 8 dereferenceable_or_null(40) %31)
  br i1 %32, label %33, label %34

33:                                               ; preds = %26
  call void @_ZN18AddressEditorFrame21on_buttonBox_acceptedEv(ptr noundef align 8 dereferenceable_or_null(72) %6)
  br label %34

34:                                               ; preds = %33, %26
  br label %35

35:                                               ; preds = %34, %22
  br label %36

36:                                               ; preds = %35, %17
  br label %37

37:                                               ; preds = %36, %2
  %38 = load ptr, ptr %4, align 8
  call void @_ZN7QWidget13keyPressEventEP9QKeyEvent(ptr noundef align 8 dereferenceable_or_null(40) %6, ptr noundef %38)
  ret void
}