; Function Attrs: mustprogress null_pointer_is_valid sspstrong uwtable
define void @_ZN18AddressEditorFrame13keyPressEventEP9QKeyEvent(ptr noundef align 8 dereferenceable_or_null(72) %0, ptr noundef %1) unnamed_addr #0 align 2 {
  %3 = tail call i32 @_ZNK9QKeyEvent9modifiersEv(ptr noundef align 8 dereferenceable_or_null(82) %1)
  %4 = icmp eq i32 %3, 0
  br i1 %4, label %5, label %28

5:                                                ; preds = %2
  %6 = getelementptr inbounds nuw i8, ptr %1, i64 64
  %7 = load i32, ptr %6, align 8
  switch i32 %7, label %28 [
    i32 16777216, label %8
    i32 16777221, label %16
    i32 16777220, label %16
  ]

8:                                                ; preds = %5
  %9 = getelementptr inbounds nuw i8, ptr %0, i64 56
  %10 = load ptr, ptr %9, align 8
  %11 = getelementptr inbounds nuw i8, ptr %10, i64 32
  %12 = load ptr, ptr %11, align 8
  tail call void @_ZN9QComboBox5clearEv(ptr noundef align 8 dereferenceable_or_null(40) %12)
  %13 = load ptr, ptr %9, align 8
  %14 = getelementptr inbounds nuw i8, ptr %13, i64 56
  %15 = load ptr, ptr %14, align 8
  tail call void @_ZN9QLineEdit5clearEv(ptr noundef align 8 dereferenceable_or_null(40) %15)
  tail call void @_ZN14AccordionFrame12animatedHideEv(ptr noundef align 8 dereferenceable_or_null(72) %0)
  br label %28

16:                                               ; preds = %5, %5
  %17 = getelementptr inbounds nuw i8, ptr %0, i64 56
  %18 = load ptr, ptr %17, align 8
  %19 = getelementptr inbounds nuw i8, ptr %18, i64 72
  %20 = load ptr, ptr %19, align 8
  %21 = tail call noundef ptr @_ZNK16QDialogButtonBox6buttonENS_14StandardButtonE(ptr noundef align 8 dereferenceable_or_null(40) %20, i32 noundef 1024)
  %22 = getelementptr inbounds nuw i8, ptr %21, i64 32
  %23 = load ptr, ptr %22, align 8
  %24 = getelementptr inbounds nuw i8, ptr %23, i64 8
  %25 = load i32, ptr %24, align 8
  %26 = and i32 %25, 1
  %.not.i = icmp eq i32 %26, 0
  br i1 %.not.i, label %27, label %28

27:                                               ; preds = %16
  tail call void @_ZN18AddressEditorFrame21on_buttonBox_acceptedEv(ptr noundef align 8 dereferenceable_or_null(72) %0)
  br label %28

28:                                               ; preds = %5, %8, %16, %27, %2
  tail call void @_ZN7QWidget13keyPressEventEP9QKeyEvent(ptr noundef align 8 dereferenceable_or_null(40) %0, ptr noundef %1)
  ret void
}